(lp0
F-0.11154814112105767
aF0.024018115280116954
aF-0.16435867473621588
aF-0.05258890022736118
aF-0.21043840535441427
aF-0.20128694402359867
aF-0.275434530729885
aF-0.1919458969020435
aF-0.19358367357122458
aF-0.14528222108301234
aF-0.20623225732844724
aF-0.017526970904737933
aF-0.1065772834460685
aF-0.04712584857443323
aF-0.16520954885161318
aF-0.22407772690608513
aF-0.22291580582749493
aF-0.18926072768716548
aF-0.23842641496095363
aF-0.17473428984047942
aF-0.3416463920908163
aF-0.06913297737506918
aF-0.2702593359796756
aF-0.19387303726628902
aF0.21921979259179672
aF0.20264894062346192
aF0.15133136718894108
aF0.13480202163155589
aF0.11626813220900298
aF0.13995126718552847
aF0.11463201980717512
aF0.09385397658090032
aF0.10812077009976666
aF0.09297422335519817
aF0.11859101629755843
aF0.1116466617712268
aF0.143455831825407
aF0.02535920165163017
aF0.10337843809175523
aF0.0536392583559328
aF0.08167028540451268
aF0.11322927813151719
aF0.11038992983959156
aF0.08563122963888724
aF0.11577010026111664
aF0.1122075542803922
aF0.034037168958394835
aF0.07417266076646972
aF0.05320274418209184
aF0.06200850296367285
aF0.047735588568583114
aF-0.1824987751098471
aF-0.27980716709855963
aF-0.04992553248114354
aF-0.08769645495428569
aF-0.16384688565775707
aF-0.20293009047992042
a.